target datalayout = "e-m:e-p270:32:32-p271:32:32-p272:64:64-i64:64-i128:128-f80:128-n8:16:32:64-S128"
target triple = "x86_64-pc-linux-gnu"

%struct.RClass = type { %struct.RBasic, i64, ptr }
%struct.RBasic = type { i64, i64 }

@rb_eTypeError = external global i64, align 8
@rb_cObject = external global i64, align 8
@rb_class_inherited.rbimpl_id = internal global i64 0, align 8
@.str.11 = private unnamed_addr constant [10 x i8] c"inherited\00", align 1
@rb_eArgError = external global i64, align 8
@.str.15 = private unnamed_addr constant [33 x i8] c"%li\0B::%li\0B is not a class (%li\0B)\00", align 1
@.str.16 = private unnamed_addr constant [70 x i8] c"superclass mismatch for class %li\0B::%li\0B (%li\0B is given but was %li\0B)\00", align 1
@.str.17 = private unnamed_addr constant [32 x i8] c"no super class for '%li\0B::%li\0B'\00", align 1

; Function Attrs: inlinehint nounwind sspstrong willreturn memory(read) uwtable
define internal i64 @rb_intern_const(ptr noundef nonnull %0) #6 {
  %2 = alloca ptr, align 8
  %3 = alloca i64, align 8
  store ptr %0, ptr %2, align 8, !tbaa !64
  call void @llvm.lifetime.start.p0(i64 8, ptr %3) #23
  %4 = load ptr, ptr %2, align 8, !tbaa !64
  %5 = call i64 @strlen(ptr noundef %4) #25
  store i64 %5, ptr %3, align 8, !tbaa !7
  %6 = load ptr, ptr %2, align 8, !tbaa !64
  %7 = load i64, ptr %3, align 8, !tbaa !7
  %8 = call i64 @rb_intern2(ptr noundef %6, i64 noundef %7)
  call void @llvm.lifetime.end.p0(i64 8, ptr %3) #23
  ret i64 %8
}

; Function Attrs: inlinehint nounwind sspstrong willreturn memory(none) uwtable
define internal zeroext i1 @RB_IMMEDIATE_P(i64 noundef %0) #1 {
  %2 = alloca i64, align 8
  store i64 %0, ptr %2, align 8, !tbaa !7
  %3 = load i64, ptr %2, align 8, !tbaa !7
  %4 = and i64 %3, 7
  %5 = icmp ne i64 %4, 0
  ret i1 %5
}

; Function Attrs: inlinehint nounwind sspstrong willreturn memory(none) uwtable
define internal zeroext i1 @RB_FLONUM_P(i64 noundef %0) #1 {
  %2 = alloca i64, align 8
  store i64 %0, ptr %2, align 8, !tbaa !7
  %3 = load i64, ptr %2, align 8, !tbaa !7
  %4 = and i64 %3, 3
  %5 = icmp eq i64 %4, 2
  ret i1 %5
}

; Function Attrs: inlinehint nounwind sspstrong willreturn memory(read) uwtable
define internal zeroext i1 @RB_DYNAMIC_SYM_P(i64 noundef %0) #6 {
  %2 = alloca i1, align 1
  %3 = alloca i64, align 8
  store i64 %0, ptr %3, align 8, !tbaa !7
  %4 = load i64, ptr %3, align 8, !tbaa !7
  %5 = call zeroext i1 @RB_SPECIAL_CONST_P(i64 noundef %4) #22
  br i1 %5, label %6, label %7

6:                                                ; preds = %1
  store i1 false, ptr %2, align 1
  br label %11

7:                                                ; preds = %1
  %8 = load i64, ptr %3, align 8, !tbaa !7
  %9 = call i32 @RB_BUILTIN_TYPE(i64 noundef %8) #25
  %10 = icmp eq i32 %9, 20
  store i1 %10, ptr %2, align 1
  br label %11

11:                                               ; preds = %7, %6
  %12 = load i1, ptr %2, align 1
  ret i1 %12
}

; Function Attrs: inlinehint nounwind sspstrong willreturn memory(none) uwtable
define internal zeroext i1 @RB_STATIC_SYM_P(i64 noundef %0) #1 {
  %2 = alloca i64, align 8
  %3 = alloca i64, align 8
  store i64 %0, ptr %2, align 8, !tbaa !7
  call void @llvm.lifetime.start.p0(i64 8, ptr %3) #23
  store i64 255, ptr %3, align 8, !tbaa !7
  %4 = load i64, ptr %2, align 8, !tbaa !7
  %5 = and i64 %4, 255
  %6 = icmp eq i64 %5, 12
  call void @llvm.lifetime.end.p0(i64 8, ptr %3) #23
  ret i1 %6
}

; Function Attrs: inlinehint nounwind sspstrong memory(argmem: readwrite, inaccessiblemem: readwrite) uwtable
define internal i64 @rbimpl_intern_const(ptr noundef nonnull %0, ptr noundef nonnull %1) #9 {
  %3 = alloca ptr, align 8
  %4 = alloca ptr, align 8
  store ptr %0, ptr %3, align 8, !tbaa !40
  store ptr %1, ptr %4, align 8, !tbaa !64
  br label %5

5:                                                ; preds = %10, %2
  %6 = load ptr, ptr %3, align 8, !tbaa !40
  %7 = load i64, ptr %6, align 8, !tbaa !7
  %8 = icmp ne i64 %7, 0
  %9 = xor i1 %8, true
  br i1 %9, label %10, label %14

10:                                               ; preds = %5
  %11 = load ptr, ptr %4, align 8, !tbaa !64
  %12 = call i64 @rb_intern_const(ptr noundef %11) #25
  %13 = load ptr, ptr %3, align 8, !tbaa !40
  store i64 %12, ptr %13, align 8, !tbaa !7
  br label %5, !llvm.loop !67

14:                                               ; preds = %5
  %15 = load ptr, ptr %3, align 8, !tbaa !40
  %16 = load i64, ptr %15, align 8, !tbaa !7
  ret i64 %16
}

; Function Attrs: inlinehint nounwind sspstrong willreturn memory(read) uwtable
define internal i32 @rb_type(i64 noundef %0) #6 {
  %2 = alloca i32, align 4
  %3 = alloca i64, align 8
  store i64 %0, ptr %3, align 8, !tbaa !7
  %4 = load i64, ptr %3, align 8, !tbaa !7
  %5 = call zeroext i1 @RB_SPECIAL_CONST_P(i64 noundef %4) #22
  br i1 %5, label %9, label %6

6:                                                ; preds = %1
  %7 = load i64, ptr %3, align 8, !tbaa !7
  %8 = call i32 @RB_BUILTIN_TYPE(i64 noundef %7) #25
  store i32 %8, ptr %2, align 4
  br label %36

9:                                                ; preds = %1
  %10 = load i64, ptr %3, align 8, !tbaa !7
  %11 = icmp eq i64 %10, 0
  br i1 %11, label %12, label %13

12:                                               ; preds = %9
  store i32 19, ptr %2, align 4
  br label %36

13:                                               ; preds = %9
  %14 = load i64, ptr %3, align 8, !tbaa !7
  %15 = icmp eq i64 %14, 4
  br i1 %15, label %16, label %17

16:                                               ; preds = %13
  store i32 17, ptr %2, align 4
  br label %36

17:                                               ; preds = %13
  %18 = load i64, ptr %3, align 8, !tbaa !7
  %19 = icmp eq i64 %18, 20
  br i1 %19, label %20, label %21

20:                                               ; preds = %17
  store i32 18, ptr %2, align 4
  br label %36

21:                                               ; preds = %17
  %22 = load i64, ptr %3, align 8, !tbaa !7
  %23 = icmp eq i64 %22, 36
  br i1 %23, label %24, label %25

24:                                               ; preds = %21
  store i32 22, ptr %2, align 4
  br label %36

25:                                               ; preds = %21
  %26 = load i64, ptr %3, align 8, !tbaa !7
  %27 = call zeroext i1 @RB_FIXNUM_P(i64 noundef %26) #22
  br i1 %27, label %28, label %29

28:                                               ; preds = %25
  store i32 21, ptr %2, align 4
  br label %36

29:                                               ; preds = %25
  %30 = load i64, ptr %3, align 8, !tbaa !7
  %31 = call zeroext i1 @RB_STATIC_SYM_P(i64 noundef %30) #22
  br i1 %31, label %32, label %33

32:                                               ; preds = %29
  store i32 20, ptr %2, align 4
  br label %36

33:                                               ; preds = %29
  %34 = load i64, ptr %3, align 8, !tbaa !7
  %35 = call zeroext i1 @RB_FLONUM_P(i64 noundef %34) #22
  call void @llvm.assume(i1 %35)
  store i32 4, ptr %2, align 4
  br label %36

36:                                               ; preds = %33, %32, %28, %24, %20, %16, %12, %6
  %37 = load i32, ptr %2, align 4
  ret i32 %37
}

; Function Attrs: inlinehint nounwind sspstrong willreturn memory(read) uwtable
define internal i32 @RB_BUILTIN_TYPE(i64 noundef %0) #6 {
  %2 = alloca i64, align 8
  %3 = alloca i64, align 8
  store i64 %0, ptr %2, align 8, !tbaa !7
  call void @llvm.lifetime.start.p0(i64 8, ptr %3) #23
  %4 = load i64, ptr %2, align 8, !tbaa !7
  %5 = inttoptr i64 %4 to ptr
  %6 = getelementptr inbounds nuw %struct.RBasic, ptr %5, i32 0, i32 0
  %7 = load i64, ptr %6, align 8, !tbaa !47
  %8 = and i64 %7, 31
  store i64 %8, ptr %3, align 8, !tbaa !7
  %9 = load i64, ptr %3, align 8, !tbaa !7
  %10 = trunc i64 %9 to i32
  call void @llvm.lifetime.end.p0(i64 8, ptr %3) #23
  ret i32 %10
}

; Function Attrs: inlinehint nounwind sspstrong willreturn memory(none) uwtable
define internal zeroext i1 @RB_SPECIAL_CONST_P(i64 noundef %0) #1 {
  %2 = alloca i64, align 8
  store i64 %0, ptr %2, align 8, !tbaa !7
  %3 = load i64, ptr %2, align 8, !tbaa !7
  %4 = icmp eq i64 %3, 0
  br i1 %4, label %8, label %5

5:                                                ; preds = %1
  %6 = load i64, ptr %2, align 8, !tbaa !7
  %7 = call zeroext i1 @RB_IMMEDIATE_P(i64 noundef %6) #22
  br label %8

8:                                                ; preds = %5, %1
  %9 = phi i1 [ true, %1 ], [ %7, %5 ]
  ret i1 %9
}

; Function Attrs: inlinehint nounwind sspstrong willreturn memory(read) uwtable
define internal zeroext i1 @RB_FLOAT_TYPE_P(i64 noundef %0) #6 {
  %2 = alloca i1, align 1
  %3 = alloca i64, align 8
  store i64 %0, ptr %3, align 8, !tbaa !7
  %4 = load i64, ptr %3, align 8, !tbaa !7
  %5 = call zeroext i1 @RB_FLONUM_P(i64 noundef %4) #22
  br i1 %5, label %6, label %7

6:                                                ; preds = %1
  store i1 true, ptr %2, align 1
  br label %15

7:                                                ; preds = %1
  %8 = load i64, ptr %3, align 8, !tbaa !7
  %9 = call zeroext i1 @RB_SPECIAL_CONST_P(i64 noundef %8) #22
  br i1 %9, label %10, label %11

10:                                               ; preds = %7
  store i1 false, ptr %2, align 1
  br label %15

11:                                               ; preds = %7
  %12 = load i64, ptr %3, align 8, !tbaa !7
  %13 = call i32 @RB_BUILTIN_TYPE(i64 noundef %12) #25
  %14 = icmp eq i32 %13, 4
  store i1 %14, ptr %2, align 1
  br label %15

15:                                               ; preds = %11, %10, %6
  %16 = load i1, ptr %2, align 1
  ret i1 %16
}

; Function Attrs: inlinehint nounwind sspstrong willreturn memory(read) uwtable
define internal zeroext i1 @RB_SYMBOL_P(i64 noundef %0) #6 {
  %2 = alloca i64, align 8
  store i64 %0, ptr %2, align 8, !tbaa !7
  %3 = load i64, ptr %2, align 8, !tbaa !7
  %4 = call zeroext i1 @RB_STATIC_SYM_P(i64 noundef %3) #22
  br i1 %4, label %8, label %5

5:                                                ; preds = %1
  %6 = load i64, ptr %2, align 8, !tbaa !7
  %7 = call zeroext i1 @RB_DYNAMIC_SYM_P(i64 noundef %6) #25
  br label %8

8:                                                ; preds = %5, %1
  %9 = phi i1 [ true, %1 ], [ %7, %5 ]
  ret i1 %9
}

; Function Attrs: inlinehint nounwind sspstrong willreturn memory(none) uwtable
define internal zeroext i1 @RB_FIXNUM_P(i64 noundef %0) #1 {
  %2 = alloca i64, align 8
  store i64 %0, ptr %2, align 8, !tbaa !7
  %3 = load i64, ptr %2, align 8, !tbaa !7
  %4 = and i64 %3, 1
  %5 = icmp ne i64 %4, 0
  ret i1 %5
}

; Function Attrs: nounwind sspstrong uwtable
define hidden i64 @rb_class_inherited(i64 noundef %0, i64 noundef %1) #0 {
  %3 = alloca i64, align 8
  %4 = alloca i64, align 8
  %5 = alloca i64, align 8
  store i64 %0, ptr %3, align 8, !tbaa !7
  store i64 %1, ptr %4, align 8, !tbaa !7
  call void @llvm.lifetime.start.p0(i64 8, ptr %5) #23
  %6 = load i64, ptr %3, align 8, !tbaa !7
  %7 = icmp ne i64 %6, 0
  br i1 %7, label %10, label %8

8:                                                ; preds = %2
  %9 = load i64, ptr @rb_cObject, align 8, !tbaa !7
  store i64 %9, ptr %3, align 8, !tbaa !7
  br label %10

10:                                               ; preds = %8, %2
  br label %11

11:                                               ; preds = %10
  %12 = call i64 @rbimpl_intern_const(ptr noundef @rb_class_inherited.rbimpl_id, ptr noundef @.str.11) #27
  store i64 %12, ptr %5, align 8, !tbaa !7
  br label %13

13:                                               ; preds = %11
  br label %14

14:                                               ; preds = %13
  %15 = load i64, ptr %3, align 8, !tbaa !7
  %16 = load i64, ptr %5, align 8, !tbaa !7
  %17 = load i64, ptr %4, align 8, !tbaa !7
  %18 = call i64 (i64, i64, i32, ...) @rb_funcall(i64 noundef %15, i64 noundef %16, i32 noundef 1, i64 noundef %17)
  call void @llvm.lifetime.end.p0(i64 8, ptr %5) #23
  ret i64 %18
}

; Function Attrs: nounwind sspstrong uwtable
define dso_local i64 @rb_define_class_id(i64 noundef %0, i64 noundef %1) #0 {
  %3 = alloca i64, align 8
  %4 = alloca i64, align 8
  %5 = alloca i64, align 8
  store i64 %0, ptr %3, align 8, !tbaa !7
  store i64 %1, ptr %4, align 8, !tbaa !7
  call void @llvm.lifetime.start.p0(i64 8, ptr %5) #23
  %6 = load i64, ptr %4, align 8, !tbaa !7
  %7 = icmp ne i64 %6, 0
  br i1 %7, label %10, label %8

8:                                                ; preds = %2
  %9 = load i64, ptr @rb_cObject, align 8, !tbaa !7
  store i64 %9, ptr %4, align 8, !tbaa !7
  br label %10

10:                                               ; preds = %8, %2
  %11 = load i64, ptr %4, align 8, !tbaa !7
  %12 = call i64 @rb_class_new(i64 noundef %11)
  store i64 %12, ptr %5, align 8, !tbaa !7
  %13 = load i64, ptr %5, align 8, !tbaa !7
  %14 = load i64, ptr %4, align 8, !tbaa !7
  %15 = inttoptr i64 %14 to ptr
  %16 = getelementptr inbounds nuw %struct.RBasic, ptr %15, i32 0, i32 1
  %17 = load i64, ptr %16, align 8, !tbaa !42
  %18 = call i64 @rb_make_metaclass(i64 noundef %13, i64 noundef %17)
  %19 = load i64, ptr %5, align 8, !tbaa !7
  call void @llvm.lifetime.end.p0(i64 8, ptr %5) #23
  ret i64 %19
}

; Function Attrs: inlinehint nounwind sspstrong uwtable
define internal i64 @RCLASS_SUPER(i64 noundef %0) #4 {
  %2 = alloca i64, align 8
  store i64 %0, ptr %2, align 8, !tbaa !7
  %3 = load i64, ptr %2, align 8, !tbaa !7
  %4 = inttoptr i64 %3 to ptr
  %5 = getelementptr inbounds nuw %struct.RClass, ptr %4, i32 0, i32 1
  %6 = load i64, ptr %5, align 8, !tbaa !38
  ret i64 %6
}

; Function Attrs: inlinehint nounwind sspstrong willreturn memory(read) uwtable
define internal zeroext i1 @RB_TYPE_P(i64 noundef %0, i32 noundef %1) #6 {
  %3 = alloca i1, align 1
  %4 = alloca i64, align 8
  %5 = alloca i32, align 4
  store i64 %0, ptr %4, align 8, !tbaa !7
  store i32 %1, ptr %5, align 4, !tbaa !39
  %6 = load i32, ptr %5, align 4, !tbaa !39
  %7 = call i1 @llvm.is.constant.i32(i32 %6)
  br i1 %7, label %8, label %12

8:                                                ; preds = %2
  %9 = load i64, ptr %4, align 8, !tbaa !7
  %10 = load i32, ptr %5, align 4, !tbaa !39
  %11 = call zeroext i1 @rbimpl_RB_TYPE_P_fastpath(i64 noundef %9, i32 noundef %10) #25
  store i1 %11, ptr %3, align 1
  br label %17

12:                                               ; preds = %2
  %13 = load i32, ptr %5, align 4, !tbaa !39
  %14 = load i64, ptr %4, align 8, !tbaa !7
  %15 = call i32 @rb_type(i64 noundef %14) #25
  %16 = icmp eq i32 %13, %15
  store i1 %16, ptr %3, align 1
  br label %17

17:                                               ; preds = %12, %8
  %18 = load i1, ptr %3, align 1
  ret i1 %18
}

; Function Attrs: alwaysinline nounwind sspstrong willreturn memory(read) uwtable
define internal zeroext i1 @rbimpl_RB_TYPE_P_fastpath(i64 noundef %0, i32 noundef %1) #5 {
  %3 = alloca i1, align 1
  %4 = alloca i64, align 8
  %5 = alloca i32, align 4
  store i64 %0, ptr %4, align 8, !tbaa !7
  store i32 %1, ptr %5, align 4, !tbaa !39
  %6 = load i32, ptr %5, align 4, !tbaa !39
  %7 = icmp eq i32 %6, 18
  br i1 %7, label %8, label %11

8:                                                ; preds = %2
  %9 = load i64, ptr %4, align 8, !tbaa !7
  %10 = icmp eq i64 %9, 20
  store i1 %10, ptr %3, align 1
  br label %58

11:                                               ; preds = %2
  %12 = load i32, ptr %5, align 4, !tbaa !39
  %13 = icmp eq i32 %12, 19
  br i1 %13, label %14, label %17

14:                                               ; preds = %11
  %15 = load i64, ptr %4, align 8, !tbaa !7
  %16 = icmp eq i64 %15, 0
  store i1 %16, ptr %3, align 1
  br label %58

17:                                               ; preds = %11
  %18 = load i32, ptr %5, align 4, !tbaa !39
  %19 = icmp eq i32 %18, 17
  br i1 %19, label %20, label %23

20:                                               ; preds = %17
  %21 = load i64, ptr %4, align 8, !tbaa !7
  %22 = icmp eq i64 %21, 4
  store i1 %22, ptr %3, align 1
  br label %58

23:                                               ; preds = %17
  %24 = load i32, ptr %5, align 4, !tbaa !39
  %25 = icmp eq i32 %24, 22
  br i1 %25, label %26, label %29

26:                                               ; preds = %23
  %27 = load i64, ptr %4, align 8, !tbaa !7
  %28 = icmp eq i64 %27, 36
  store i1 %28, ptr %3, align 1
  br label %58

29:                                               ; preds = %23
  %30 = load i32, ptr %5, align 4, !tbaa !39
  %31 = icmp eq i32 %30, 21
  br i1 %31, label %32, label %35

32:                                               ; preds = %29
  %33 = load i64, ptr %4, align 8, !tbaa !7
  %34 = call zeroext i1 @RB_FIXNUM_P(i64 noundef %33) #22
  store i1 %34, ptr %3, align 1
  br label %58

35:                                               ; preds = %29
  %36 = load i32, ptr %5, align 4, !tbaa !39
  %37 = icmp eq i32 %36, 20
  br i1 %37, label %38, label %41

38:                                               ; preds = %35
  %39 = load i64, ptr %4, align 8, !tbaa !7
  %40 = call zeroext i1 @RB_SYMBOL_P(i64 noundef %39) #25
  store i1 %40, ptr %3, align 1
  br label %58

41:                                               ; preds = %35
  %42 = load i32, ptr %5, align 4, !tbaa !39
  %43 = icmp eq i32 %42, 4
  br i1 %43, label %44, label %47

44:                                               ; preds = %41
  %45 = load i64, ptr %4, align 8, !tbaa !7
  %46 = call zeroext i1 @RB_FLOAT_TYPE_P(i64 noundef %45) #25
  store i1 %46, ptr %3, align 1
  br label %58

47:                                               ; preds = %41
  %48 = load i64, ptr %4, align 8, !tbaa !7
  %49 = call zeroext i1 @RB_SPECIAL_CONST_P(i64 noundef %48) #22
  br i1 %49, label %50, label %51

50:                                               ; preds = %47
  store i1 false, ptr %3, align 1
  br label %58

51:                                               ; preds = %47
  %52 = load i32, ptr %5, align 4, !tbaa !39
  %53 = load i64, ptr %4, align 8, !tbaa !7
  %54 = call i32 @RB_BUILTIN_TYPE(i64 noundef %53) #25
  %55 = icmp eq i32 %52, %54
  br i1 %55, label %56, label %57

56:                                               ; preds = %51
  store i1 true, ptr %3, align 1
  br label %58

57:                                               ; preds = %51
  store i1 false, ptr %3, align 1
  br label %58

58:                                               ; preds = %57, %56, %50, %44, %38, %32, %26, %20, %14, %8
  %59 = load i1, ptr %3, align 1
  ret i1 %59
}

; Function Attrs: nounwind sspstrong uwtable
define hidden i64 @rb_define_class_id_under_no_pin(i64 noundef %0, i64 noundef %1, i64 noundef %2) #0 {
  %4 = alloca i64, align 8
  %5 = alloca i64, align 8
  %6 = alloca i64, align 8
  %7 = alloca i64, align 8
  %8 = alloca i64, align 8
  %9 = alloca i32, align 4
  store i64 %0, ptr %5, align 8, !tbaa !7
  store i64 %1, ptr %6, align 8, !tbaa !7
  store i64 %2, ptr %7, align 8, !tbaa !7
  call void @llvm.lifetime.start.p0(i64 8, ptr %8) #23
  %10 = load i64, ptr %5, align 8, !tbaa !7
  %11 = load i64, ptr %6, align 8, !tbaa !7
  %12 = call i32 @rb_const_defined_at(i64 noundef %10, i64 noundef %11)
  %13 = icmp ne i32 %12, 0
  br i1 %13, label %14, label %47

14:                                               ; preds = %3
  %15 = load i64, ptr %5, align 8, !tbaa !7
  %16 = load i64, ptr %6, align 8, !tbaa !7
  %17 = call i64 @rb_const_get_at(i64 noundef %15, i64 noundef %16)
  store i64 %17, ptr %8, align 8, !tbaa !7
  br i1 true, label %18, label %21

18:                                               ; preds = %14
  %19 = load i64, ptr %8, align 8, !tbaa !7
  %20 = call zeroext i1 @rbimpl_RB_TYPE_P_fastpath(i64 noundef %19, i32 noundef 2) #25
  br i1 %20, label %31, label %24

21:                                               ; preds = %14
  %22 = load i64, ptr %8, align 8, !tbaa !7
  %23 = call zeroext i1 @RB_TYPE_P(i64 noundef %22, i32 noundef 2) #25
  br i1 %23, label %31, label %24

24:                                               ; preds = %21, %18
  %25 = load i64, ptr @rb_eTypeError, align 8, !tbaa !7
  %26 = load i64, ptr %5, align 8, !tbaa !7
  %27 = load i64, ptr %6, align 8, !tbaa !7
  %28 = call i64 @rb_id2str(i64 noundef %27)
  %29 = load i64, ptr %8, align 8, !tbaa !7
  %30 = call i64 @rb_obj_class(i64 noundef %29)
  call void (i64, ptr, ...) @rb_raise(i64 noundef %25, ptr noundef @.str.15, i64 noundef %26, i64 noundef %28, i64 noundef %30) #28
  unreachable

31:                                               ; preds = %21, %18
  %32 = load i64, ptr %8, align 8, !tbaa !7
  %33 = call i64 @RCLASS_SUPER(i64 noundef %32)
  %34 = call i64 @rb_class_real(i64 noundef %33) #25
  %35 = load i64, ptr %7, align 8, !tbaa !7
  %36 = icmp ne i64 %34, %35
  br i1 %36, label %37, label %45

37:                                               ; preds = %31
  %38 = load i64, ptr @rb_eTypeError, align 8, !tbaa !7
  %39 = load i64, ptr %5, align 8, !tbaa !7
  %40 = load i64, ptr %6, align 8, !tbaa !7
  %41 = call i64 @rb_id2str(i64 noundef %40)
  %42 = load i64, ptr %8, align 8, !tbaa !7
  %43 = call i64 @RCLASS_SUPER(i64 noundef %42)
  %44 = load i64, ptr %7, align 8, !tbaa !7
  call void (i64, ptr, ...) @rb_raise(i64 noundef %38, ptr noundef @.str.16, i64 noundef %39, i64 noundef %41, i64 noundef %43, i64 noundef %44) #28
  unreachable

45:                                               ; preds = %31
  %46 = load i64, ptr %8, align 8, !tbaa !7
  store i64 %46, ptr %4, align 8
  store i32 1, ptr %9, align 4
  br label %71

47:                                               ; preds = %3
  %48 = load i64, ptr %7, align 8, !tbaa !7
  %49 = icmp ne i64 %48, 0
  br i1 %49, label %56, label %50

50:                                               ; preds = %47
  %51 = load i64, ptr @rb_eArgError, align 8, !tbaa !7
  %52 = load i64, ptr %5, align 8, !tbaa !7
  %53 = call i64 @rb_class_path(i64 noundef %52)
  %54 = load i64, ptr %6, align 8, !tbaa !7
  %55 = call i64 @rb_id2str(i64 noundef %54)
  call void (i64, ptr, ...) @rb_raise(i64 noundef %51, ptr noundef @.str.17, i64 noundef %53, i64 noundef %55) #28
  unreachable

56:                                               ; preds = %47
  %57 = load i64, ptr %6, align 8, !tbaa !7
  %58 = load i64, ptr %7, align 8, !tbaa !7
  %59 = call i64 @rb_define_class_id(i64 noundef %57, i64 noundef %58)
  store i64 %59, ptr %8, align 8, !tbaa !7
  %60 = load i64, ptr %8, align 8, !tbaa !7
  %61 = load i64, ptr %5, align 8, !tbaa !7
  %62 = load i64, ptr %6, align 8, !tbaa !7
  %63 = call i64 @rb_id2str(i64 noundef %62)
  call void @rb_set_class_path_string(i64 noundef %60, i64 noundef %61, i64 noundef %63)
  %64 = load i64, ptr %5, align 8, !tbaa !7
  %65 = load i64, ptr %6, align 8, !tbaa !7
  %66 = load i64, ptr %8, align 8, !tbaa !7
  call void @rb_const_set(i64 noundef %64, i64 noundef %65, i64 noundef %66)
  %67 = load i64, ptr %7, align 8, !tbaa !7
  %68 = load i64, ptr %8, align 8, !tbaa !7
  %69 = call i64 @rb_class_inherited(i64 noundef %67, i64 noundef %68)
  %70 = load i64, ptr %8, align 8, !tbaa !7
  store i64 %70, ptr %4, align 8
  store i32 1, ptr %9, align 4
  br label %71

71:                                               ; preds = %56, %45
  call void @llvm.lifetime.end.p0(i64 8, ptr %8) #23
  %72 = load i64, ptr %4, align 8
  ret i64 %72
}