; Function Attrs: nounwind sspstrong uwtable
define hidden i64 @rb_define_class_id_under_no_pin(i64 noundef %0, i64 noundef %1, i64 noundef %2) local_unnamed_addr #0 {
  %4 = tail call i32 @rb_const_defined_at(i64 noundef %0, i64 noundef %1) #19
  %.not = icmp eq i32 %4, 0
  br i1 %.not, label %26, label %5

5:                                                ; preds = %3
  %6 = tail call i64 @rb_const_get_at(i64 noundef %0, i64 noundef %1) #19
  %7 = icmp eq i64 %6, 0
  %8 = and i64 %6, 7
  %9 = icmp ne i64 %8, 0
  %10 = or i1 %7, %9
  br i1 %10, label %rbimpl_RB_TYPE_P_fastpath.exit.thread, label %rbimpl_RB_TYPE_P_fastpath.exit

rbimpl_RB_TYPE_P_fastpath.exit:                   ; preds = %5
  %11 = inttoptr i64 %6 to ptr
  %12 = load i64, ptr %11, align 8, !tbaa !35
  %13 = and i64 %12, 31
  %14 = icmp eq i64 %13, 2
  br i1 %14, label %18, label %rbimpl_RB_TYPE_P_fastpath.exit.thread

rbimpl_RB_TYPE_P_fastpath.exit.thread:            ; preds = %5, %rbimpl_RB_TYPE_P_fastpath.exit
  %15 = load i64, ptr @rb_eTypeError, align 8, !tbaa !29
  %16 = tail call i64 @rb_id2str(i64 noundef %1) #19
  %17 = tail call i64 @rb_obj_class(i64 noundef %6) #19
  tail call void (i64, ptr, ...) @rb_raise(i64 noundef %15, ptr noundef nonnull @.str.15, i64 noundef %0, i64 noundef %16, i64 noundef %17) #21
  unreachable

18:                                               ; preds = %rbimpl_RB_TYPE_P_fastpath.exit
  %19 = getelementptr inbounds nuw i8, ptr %11, i64 16
  %20 = load i64, ptr %19, align 8, !tbaa !34
  %21 = tail call i64 @rb_class_real(i64 noundef %20) #23
  %.not32 = icmp eq i64 %21, %2
  br i1 %.not32, label %37, label %22

22:                                               ; preds = %18
  %23 = load i64, ptr @rb_eTypeError, align 8, !tbaa !29
  %24 = tail call i64 @rb_id2str(i64 noundef %1) #19
  %25 = load i64, ptr %19, align 8, !tbaa !34
  tail call void (i64, ptr, ...) @rb_raise(i64 noundef %23, ptr noundef nonnull @.str.16, i64 noundef %0, i64 noundef %24, i64 noundef %25, i64 noundef %2) #21
  unreachable

26:                                               ; preds = %3
  %.not31 = icmp eq i64 %2, 0
  br i1 %.not31, label %27, label %31

27:                                               ; preds = %26
  %28 = load i64, ptr @rb_eArgError, align 8, !tbaa !29
  %29 = tail call i64 @rb_class_path(i64 noundef %0) #19
  %30 = tail call i64 @rb_id2str(i64 noundef %1) #19
  tail call void (i64, ptr, ...) @rb_raise(i64 noundef %28, ptr noundef nonnull @.str.17, i64 noundef %29, i64 noundef %30) #21
  unreachable

31:                                               ; preds = %26
  %32 = tail call i64 @rb_class_new(i64 noundef %2)
  %33 = tail call i64 @rb_make_metaclass(i64 noundef %32, i64 poison)
  %34 = tail call i64 @rb_id2str(i64 noundef %1) #19
  tail call void @rb_set_class_path_string(i64 noundef %32, i64 noundef %0, i64 noundef %34) #19
  tail call void @rb_const_set(i64 noundef %0, i64 noundef %1, i64 noundef %32) #19
  %.pr.i.i = load i64, ptr @rb_class_inherited.rbimpl_id, align 8, !tbaa !29
  %.not4.i.i = icmp eq i64 %.pr.i.i, 0
  br i1 %.not4.i.i, label %.lr.ph.i.i, label %rb_class_inherited.exit

.lr.ph.i.i:                                       ; preds = %31, %.lr.ph.i.i
  %35 = tail call i64 @rb_intern2(ptr noundef nonnull @.str.11, i64 noundef 9) #19
  store i64 %35, ptr @rb_class_inherited.rbimpl_id, align 8, !tbaa !29
  %.not.i.i = icmp eq i64 %35, 0
  br i1 %.not.i.i, label %.lr.ph.i.i, label %rb_class_inherited.exit, !llvm.loop !53

rb_class_inherited.exit:                          ; preds = %.lr.ph.i.i, %31
  %.lcssa.i.i = phi i64 [ %.pr.i.i, %31 ], [ %35, %.lr.ph.i.i ]
  %36 = tail call i64 (i64, i64, i32, ...) @rb_funcall(i64 noundef %2, i64 noundef %.lcssa.i.i, i32 noundef 1, i64 noundef %32) #19
  br label %37

37:                                               ; preds = %18, %rb_class_inherited.exit
  %.0 = phi i64 [ %32, %rb_class_inherited.exit ], [ %6, %18 ]
  ret i64 %.0
}